Certificate:
    Data:
        Version: 1 (0x0)
        Serial Number: 1 (0x1)
    Signature Algorithm: sha1WithRSAEncryption
        Issuer: OU=ca
        Validity
            Not Before: Mar 18 23:15:05 2020 GMT
            Not After : Aug  3 23:15:05 2047 GMT
        Subject: CN=influxdb
        Subject Public Key Info:
            Public Key Algorithm: rsaEncryption
                Public-Key: (2048 bit)
                Modulus:
                    00:b8:2b:b0:34:cc:d9:59:b5:60:b4:9a:10:26:76:
                    f6:0f:4c:59:06:99:16:e5:78:6c:ab:00:2d:f6:41:
                    b3:25:81:51:6d:80:7a:73:8e:5c:a6:bf:9a:20:7c:
                    84:ee:73:ca:ff:90:39:5e:c6:69:99:35:74:fa:8a:
                    f4:43:de:a0:f8:75:89:de:69:19:ad:54:4a:e0:42:
                    11:d9:1f:95:47:d3:97:f7:ce:a5:b8:bc:74:92:83:
                    d1:69:dc:69:bc:91:83:dd:2e:13:50:0e:e2:88:99:
                    16:b7:4c:70:5a:a8:ed:dd:2b:04:a6:dc:ba:90:74:
                    22:1c:eb:40:59:3d:d3:de:4a:7e:99:67:6e:c7:96:
                    7b:e9:a2:9f:55:6a:cf:e2:63:7c:90:fe:a9:3d:3e:
                    28:3e:44:55:5c:91:b5:ff:66:83:02:70:51:b4:62:
                    50:ef:78:91:c4:11:f6:af:9e:85:ef:ea:bb:89:42:
                    53:d1:db:d8:3d:24:8b:ef:5d:64:ea:26:01:3c:f6:
                    3b:46:e3:c6:5a:d1:d1:5f:b3:b2:96:57:15:df:5d:
                    32:00:93:f7:38:02:56:27:5f:a4:ee:d5:ee:29:43:
                    fa:38:b4:c8:d0:f5:93:4a:b8:b6:30:61:28:f3:94:
                    fb:40:4b:17:04:9b:f3:fa:b3:58:01:76:0b:6d:d8:
                    7c:39
                Exponent: 65537 (0x10001)
        X509v3 extensions:
            X509v3 Subject Alternative Name: 
                DNS:influxdb, DNS:localhost, DNS:host.docker.internal
    Signature Algorithm: sha1WithRSAEncryption
         6b:ef:e5:b5:d4:70:77:6b:81:4a:db:2a:ca:27:fe:23:7b:6c:
         28:32:49:57:70:5b:e9:9d:a4:80:45:a7:83:1c:ca:cd:e3:da:
         a7:c5:40:ac:ea:5f:50:24:7f:ae:8a:14:c1:6d:48:1f:08:94:
         39:29:9e:db:16:15:48:7a:a7:c9:f1:dc:06:f4:41:d3:c7:98:
         d9:00:a8:a9:3e:5d:58:b6:5b:b5:74:70:dc:21:24:f2:8d:bb:
         8b:8e:a2:bf:eb:8c:c5:82:e9:66:af:e1:61:67:6c:be:bb:2e:
         7c:0d:a2:02:cc:8b:54:dc:9d:20:10:21:f9:02:33:b7:25:a0:
         e7:0f:4b:4a:f4:ae:1a:11:f5:ce:d6:05:d5:58:f0:67:db:93:
         42:7d:9c:5a:67:3b:e0:5a:35:f1:f9:e0:a4:1f:55:32:59:76:
         2f:12:29:40:04:07:3b:b8:1c:98:34:7a:4d:c1:63:3f:7f:04:
         0d:78:b8:d9:55:6c:e8:ac:20:b5:c7:0e:4d:76:12:a9:1e:fb:
         2b:43:01:95:d5:9d:a6:7b:bb:67:f2:42:f8:52:75:45:41:d1:
         b6:4a:4a:55:ff:ea:05:92:aa:83:2a:c6:02:6e:4d:67:99:4e:
         18:b2:87:25:65:ee:92:d9:81:d5:23:3d:54:18:bd:19:40:c3:
         aa:d4:e6:b3
-----BEGIN CERTIFICATE-----
MIICzjCCAbYCAQEwDQYJKoZIhvcNAQEFBQAwDTELMAkGA1UECwwCY2EwHhcNMjAw
MzE4MjMxNTA1WhcNNDcwODAzMjMxNTA1WjATMREwDwYDVQQDDAhpbmZsdXhkYjCC
ASIwDQYJKoZIhvcNAQEBBQADggEPADCCAQoCggEBALgrsDTM2Vm1YLSaECZ29g9M
WQaZFuV4bKsALfZBsyWBUW2AenOOXKa/miB8hO5zyv+QOV7GaZk1dPqK9EPeoPh1
id5pGa1USuBCEdkflUfTl/fOpbi8dJKD0WncabyRg90uE1AO4oiZFrdMcFqo7d0r
BKbcupB0IhzrQFk9095KfplnbseWe+min1Vqz+JjfJD+qT0+KD5EVVyRtf9mgwJw
UbRiUO94kcQR9q+ehe/qu4lCU9Hb2D0ki+9dZOomATz2O0bjxlrR0V+zspZXFd9d
MgCT9zgCVidfpO7V7ilD+ji0yND1k0q4tjBhKPOU+0BLFwSb8/qzWAF2C23YfDkC
AwEAAaM4MDYwNAYDVR0RBC0wK4IIaW5mbHV4ZGKCCWxvY2FsaG9zdIIUaG9zdC5k
b2NrZXIuaW50ZXJuYWwwDQYJKoZIhvcNAQEFBQADggEBAGvv5bXUcHdrgUrbKson
/iN7bCgySVdwW+mdpIBFp4Mcys3j2qfFQKzqX1Akf66KFMFtSB8IlDkpntsWFUh6
p8nx3Ab0QdPHmNkAqKk+XVi2W7V0cNwhJPKNu4uOor/rjMWC6Wav4WFnbL67LnwN
ogLMi1TcnSAQIfkCM7cloOcPS0r0rhoR9c7WBdVY8Gfbk0J9nFpnO+BaNfH54KQf
VTJZdi8SKUAEBzu4HJg0ek3BYz9/BA14uNlVbOisILXHDk12Eqke+ytDAZXVnaZ7
u2fyQvhSdUVB0bZKSlX/6gWSqoMqxgJuTWeZThiyhyVl7pLZgdUjPVQYvRlAw6rU
5rM=
-----END CERTIFICATE-----
